target datalayout = "e-m:e-p270:32:32-p271:32:32-p272:64:64-i64:64-i128:128-f80:128-n8:16:32:64-S128"
target triple = "x86_64-pc-linux-gnu"

%struct.GlobalContext = type { %struct.HTable, ptr, ptr, ptr, ptr, ptr, ptr, ptr, ptr, i8, i32, i32, i32, ptr, ptr, %struct.HTable, %struct.HTable, %struct.Module_, %struct.DeclTable, %struct.DeclTable, %struct.Path_, ptr, ptr, ptr, ptr, ptr, ptr, ptr, [65536 x ptr], ptr, ptr, ptr }
%struct.HTable = type { i32, ptr }
%struct.Module_ = type { ptr, ptr, ptr, i16, i32, ptr, %struct.HTable, ptr, ptr, ptr, ptr, ptr, ptr, ptr, ptr, ptr }
%struct.DeclTable = type { i32, i32, i32, ptr }
%struct.Path_ = type { %union.SourceSpan, ptr, i32 }
%union.SourceSpan = type { i64 }
%struct.Vmem = type { ptr, i64, i64 }

@compiler_init_time = dso_local global double 0.000000e+00, align 8
@compiler_parsing_time = dso_local global double 0.000000e+00, align 8
@compiler_sema_time = dso_local global double 0.000000e+00, align 8
@compiler_ir_gen_time = dso_local global double 0.000000e+00, align 8
@compiler_codegen_time = dso_local global double 0.000000e+00, align 8
@compiler_link_time = dso_local global double 0.000000e+00, align 8
@debug_log = external global i8, align 1
@.str.3 = private unnamed_addr constant [10 x i8] c"-- INFO: \00", align 1
@.str.4 = private unnamed_addr constant [12 x i8] c"Version: %s\00", align 1
@.str.5 = private unnamed_addr constant [6 x i8] c"0.5.6\00", align 1
@.str.6 = private unnamed_addr constant [2 x i8] c"\0A\00", align 1
@global_context = dso_local global %struct.GlobalContext zeroinitializer, align 8
@ast_arena = dso_local global %struct.Vmem zeroinitializer, align 8
@expr_arena = dso_local global %struct.Vmem zeroinitializer, align 8
@decl_arena = dso_local global %struct.Vmem zeroinitializer, align 8
@type_info_arena = dso_local global %struct.Vmem zeroinitializer, align 8

; Function Attrs: nounwind uwtable
define internal ptr @type_info_calloc() #0 {
  %1 = call ptr @vmem_alloc(ptr noundef @type_info_arena, i64 noundef 40)
  ret ptr %1
}

; Function Attrs: nounwind uwtable
define internal ptr @decl_calloc() #0 {
  %1 = call ptr @vmem_alloc(ptr noundef @decl_arena, i64 noundef 136)
  ret ptr %1
}

; Function Attrs: nounwind uwtable
define internal ptr @expr_calloc() #0 {
  %1 = call ptr @vmem_alloc(ptr noundef @expr_arena, i64 noundef 56)
  ret ptr %1
}

; Function Attrs: nounwind uwtable
define internal ptr @ast_calloc() #0 {
  %1 = call ptr @vmem_alloc(ptr noundef @ast_arena, i64 noundef 48)
  ret ptr %1
}

; Function Attrs: nounwind uwtable
define dso_local void @compiler_init(ptr noundef %0) #0 {
  %2 = alloca ptr, align 8
  %3 = alloca %struct.GlobalContext, align 8
  store ptr %0, ptr %2, align 8
  store double -1.000000e+00, ptr @compiler_init_time, align 8
  store double -1.000000e+00, ptr @compiler_parsing_time, align 8
  store double -1.000000e+00, ptr @compiler_sema_time, align 8
  store double -1.000000e+00, ptr @compiler_ir_gen_time, align 8
  store double -1.000000e+00, ptr @compiler_codegen_time, align 8
  store double -1.000000e+00, ptr @compiler_link_time, align 8
  br label %4

4:                                                ; preds = %1
  %5 = load i8, ptr @debug_log, align 1
  %6 = trunc i8 %5 to i1
  br i1 %6, label %8, label %7

7:                                                ; preds = %4
  br label %12

8:                                                ; preds = %4
  %9 = call i32 (ptr, ...) @printf(ptr noundef @.str.3)
  %10 = call i32 (ptr, ...) @printf(ptr noundef @.str.4, ptr noundef @.str.5)
  %11 = call i32 (ptr, ...) @printf(ptr noundef @.str.6)
  br label %12

12:                                               ; preds = %8, %7
  call void @llvm.memset.p0.i64(ptr align 8 %3, i8 0, i64 524712, i1 false)
  call void @llvm.memcpy.p0.p0.i64(ptr align 8 @global_context, ptr align 8 %3, i64 524712, i1 false)
  call void @htable_init(ptr noundef @global_context, i32 noundef 16384)
  call void @decltable_init(ptr noundef getelementptr inbounds (%struct.GlobalContext, ptr @global_context, i32 0, i32 18), i32 noundef 65536)
  call void @decltable_init(ptr noundef getelementptr inbounds (%struct.GlobalContext, ptr @global_context, i32 0, i32 19), i32 noundef 4096)
  call void @htable_init(ptr noundef getelementptr inbounds (%struct.GlobalContext, ptr @global_context, i32 0, i32 16), i32 noundef 1024)
  call void @htable_init(ptr noundef getelementptr inbounds (%struct.GlobalContext, ptr @global_context, i32 0, i32 15), i32 noundef 16384)
  store ptr null, ptr getelementptr inbounds (%struct.GlobalContext, ptr @global_context, i32 0, i32 2), align 8
  store ptr null, ptr getelementptr inbounds (%struct.GlobalContext, ptr @global_context, i32 0, i32 3), align 8
  store ptr null, ptr getelementptr inbounds (%struct.GlobalContext, ptr @global_context, i32 0, i32 5), align 8
  store ptr null, ptr getelementptr inbounds (%struct.GlobalContext, ptr @global_context, i32 0, i32 31), align 8
  call void @vmem_init(ptr noundef @ast_arena, i64 noundef 512)
  %13 = call ptr @ast_calloc()
  call void @vmem_init(ptr noundef @expr_arena, i64 noundef 512)
  %14 = call ptr @expr_calloc()
  call void @vmem_init(ptr noundef @decl_arena, i64 noundef 256)
  %15 = call ptr @decl_calloc()
  call void @vmem_init(ptr noundef @type_info_arena, i64 noundef 256)
  %16 = call ptr @type_info_calloc()
  %17 = load ptr, ptr %2, align 8
  %18 = icmp ne ptr %17, null
  br i1 %18, label %19, label %21

19:                                               ; preds = %12
  %20 = load ptr, ptr %2, align 8
  store ptr %20, ptr getelementptr inbounds (%struct.GlobalContext, ptr @global_context, i32 0, i32 6), align 8
  br label %23

21:                                               ; preds = %12
  %22 = call ptr @find_lib_dir()
  store ptr %22, ptr getelementptr inbounds (%struct.GlobalContext, ptr @global_context, i32 0, i32 6), align 8
  br label %23

23:                                               ; preds = %21, %19
  ret void
}