; Function Attrs: nounwind uwtable
define dso_local void @compiler_init(ptr noundef %0) local_unnamed_addr #0 {
  store double -1.000000e+00, ptr @compiler_init_time, align 8
  store double -1.000000e+00, ptr @compiler_parsing_time, align 8
  store double -1.000000e+00, ptr @compiler_sema_time, align 8
  store double -1.000000e+00, ptr @compiler_ir_gen_time, align 8
  store double -1.000000e+00, ptr @compiler_codegen_time, align 8
  store double -1.000000e+00, ptr @compiler_link_time, align 8
  %2 = load i8, ptr @debug_log, align 1
  %3 = trunc i8 %2 to i1
  br i1 %3, label %4, label %7

4:                                                ; preds = %1
  %5 = tail call i32 (ptr, ...) @printf(ptr noundef nonnull dereferenceable(1) @.str.3)
  %6 = tail call i32 (ptr, ...) @printf(ptr noundef nonnull dereferenceable(1) @.str.4, ptr noundef nonnull @.str.5)
  %putchar = tail call i32 @putchar(i32 10)
  br label %7

7:                                                ; preds = %1, %4
  tail call void @llvm.memset.p0.i64(ptr noundef nonnull align 8 dereferenceable(524712) @global_context, i8 0, i64 524712, i1 false)
  tail call void @htable_init(ptr noundef nonnull @global_context, i32 noundef 16384) #20
  tail call void @decltable_init(ptr noundef nonnull getelementptr inbounds (%struct.GlobalContext, ptr @global_context, i64 0, i32 18), i32 noundef 65536) #20
  tail call void @decltable_init(ptr noundef nonnull getelementptr inbounds (%struct.GlobalContext, ptr @global_context, i64 0, i32 19), i32 noundef 4096) #20
  tail call void @htable_init(ptr noundef nonnull getelementptr inbounds (%struct.GlobalContext, ptr @global_context, i64 0, i32 16), i32 noundef 1024) #20
  tail call void @htable_init(ptr noundef nonnull getelementptr inbounds (%struct.GlobalContext, ptr @global_context, i64 0, i32 15), i32 noundef 16384) #20
  store ptr null, ptr getelementptr inbounds (%struct.GlobalContext, ptr @global_context, i64 0, i32 5), align 8
  store ptr null, ptr getelementptr inbounds (%struct.GlobalContext, ptr @global_context, i64 0, i32 31), align 8
  tail call void @llvm.memset.p0.i64(ptr noundef nonnull align 8 dereferenceable(16) getelementptr inbounds (%struct.GlobalContext, ptr @global_context, i64 0, i32 2), i8 0, i64 16, i1 false)
  tail call void @vmem_init(ptr noundef nonnull @ast_arena, i64 noundef 512) #20
  %8 = tail call ptr @vmem_alloc(ptr noundef nonnull @ast_arena, i64 noundef 48) #20
  tail call void @vmem_init(ptr noundef nonnull @expr_arena, i64 noundef 512) #20
  %9 = tail call ptr @vmem_alloc(ptr noundef nonnull @expr_arena, i64 noundef 56) #20
  tail call void @vmem_init(ptr noundef nonnull @decl_arena, i64 noundef 256) #20
  %10 = tail call ptr @vmem_alloc(ptr noundef nonnull @decl_arena, i64 noundef 136) #20
  tail call void @vmem_init(ptr noundef nonnull @type_info_arena, i64 noundef 256) #20
  %11 = tail call ptr @vmem_alloc(ptr noundef nonnull @type_info_arena, i64 noundef 40) #20
  %.not = icmp eq ptr %0, null
  br i1 %.not, label %12, label %14

12:                                               ; preds = %7
  %13 = tail call ptr @find_lib_dir() #20
  br label %14

14:                                               ; preds = %7, %12
  %storemerge = phi ptr [ %13, %12 ], [ %0, %7 ]
  store ptr %storemerge, ptr getelementptr inbounds (%struct.GlobalContext, ptr @global_context, i64 0, i32 6), align 8
  ret void
}